target datalayout = "e-m:e-p270:32:32-p271:32:32-p272:64:64-i64:64-i128:128-f80:128-n8:16:32:64-S128"
target triple = "x86_64-pc-linux-gnu"

%struct.xorkey_st = type { [32 x i8], [32 x i8], i32, i32, ptr, %struct.CRYPTO_REF_COUNT }
%struct.CRYPTO_REF_COUNT = type { i32 }
%struct.PROV_XORSIG_CTX = type { ptr, ptr, ptr, i8, [50 x i8], ptr, i64, ptr, ptr, i32 }

@.str.2 = private unnamed_addr constant [31 x i8] c"../openssl/test/tls-provider.c\00", align 1
@__func__.xor_sig_setup_md = private unnamed_addr constant [17 x i8] c"xor_sig_setup_md\00", align 1
@.str.70 = private unnamed_addr constant [24 x i8] c"%s could not be fetched\00", align 1

; Function Attrs: nounwind uwtable
define internal i32 @xor_get_aid(ptr noundef %0, ptr noundef %1) #0 {
  %3 = alloca ptr, align 8
  %4 = alloca ptr, align 8
  %5 = alloca ptr, align 8
  %6 = alloca i32, align 4
  store ptr %0, ptr %3, align 8, !tbaa !93
  store ptr %1, ptr %4, align 8, !tbaa !30
  call void @llvm.lifetime.start.p0(i64 8, ptr %5) #8
  %7 = call ptr @X509_ALGOR_new()
  store ptr %7, ptr %5, align 8, !tbaa !124
  call void @llvm.lifetime.start.p0(i64 4, ptr %6) #8
  store i32 0, ptr %6, align 4, !tbaa !27
  %8 = load ptr, ptr %5, align 8, !tbaa !124
  %9 = load ptr, ptr %4, align 8, !tbaa !30
  %10 = call ptr @OBJ_txt2obj(ptr noundef %9, i32 noundef 0)
  %11 = call i32 @X509_ALGOR_set0(ptr noundef %8, ptr noundef %10, i32 noundef -1, ptr noundef null)
  %12 = load ptr, ptr %5, align 8, !tbaa !124
  %13 = load ptr, ptr %3, align 8, !tbaa !93
  %14 = call i32 @i2d_X509_ALGOR(ptr noundef %12, ptr noundef %13)
  store i32 %14, ptr %6, align 4, !tbaa !27
  %15 = load ptr, ptr %5, align 8, !tbaa !124
  call void @X509_ALGOR_free(ptr noundef %15)
  %16 = load i32, ptr %6, align 4, !tbaa !27
  call void @llvm.lifetime.end.p0(i64 4, ptr %6) #8
  call void @llvm.lifetime.end.p0(i64 8, ptr %5) #8
  ret i32 %16
}

; Function Attrs: nounwind uwtable
define internal i32 @xor_sig_setup_md(ptr noundef %0, ptr noundef %1, ptr noundef %2) #0 {
  %4 = alloca i32, align 4
  %5 = alloca ptr, align 8
  %6 = alloca ptr, align 8
  %7 = alloca ptr, align 8
  %8 = alloca ptr, align 8
  %9 = alloca i32, align 4
  store ptr %0, ptr %5, align 8, !tbaa !13
  store ptr %1, ptr %6, align 8, !tbaa !30
  store ptr %2, ptr %7, align 8, !tbaa !30
  call void @llvm.lifetime.start.p0(i64 8, ptr %8) #8
  %10 = load ptr, ptr %7, align 8, !tbaa !30
  %11 = icmp eq ptr %10, null
  br i1 %11, label %12, label %16

12:                                               ; preds = %3
  %13 = load ptr, ptr %5, align 8, !tbaa !13
  %14 = getelementptr inbounds nuw %struct.PROV_XORSIG_CTX, ptr %13, i32 0, i32 1
  %15 = load ptr, ptr %14, align 8, !tbaa !144
  store ptr %15, ptr %7, align 8, !tbaa !30
  br label %16

16:                                               ; preds = %12, %3
  %17 = load ptr, ptr %5, align 8, !tbaa !13
  %18 = getelementptr inbounds nuw %struct.PROV_XORSIG_CTX, ptr %17, i32 0, i32 0
  %19 = load ptr, ptr %18, align 8, !tbaa !140
  %20 = load ptr, ptr %6, align 8, !tbaa !30
  %21 = load ptr, ptr %7, align 8, !tbaa !30
  %22 = call ptr @EVP_MD_fetch(ptr noundef %19, ptr noundef %20, ptr noundef %21)
  store ptr %22, ptr %8, align 8, !tbaa !151
  %23 = load ptr, ptr %8, align 8, !tbaa !151
  %24 = icmp eq ptr %23, null
  br i1 %24, label %29, label %25

25:                                               ; preds = %16
  %26 = load ptr, ptr %8, align 8, !tbaa !151
  %27 = call i32 @EVP_MD_get_type(ptr noundef %26)
  %28 = icmp eq i32 %27, 0
  br i1 %28, label %29, label %36

29:                                               ; preds = %25, %16
  %30 = load ptr, ptr %8, align 8, !tbaa !151
  %31 = icmp eq ptr %30, null
  br i1 %31, label %32, label %34

32:                                               ; preds = %29
  call void @ERR_new()
  call void @ERR_set_debug(ptr noundef @.str.2, i32 noundef 2680, ptr noundef @__func__.xor_sig_setup_md)
  %33 = load ptr, ptr %6, align 8, !tbaa !30
  call void (i32, i32, ptr, ...) @ERR_set_error(i32 noundef 128, i32 noundef 1, ptr noundef @.str.70, ptr noundef %33)
  br label %34

34:                                               ; preds = %32, %29
  %35 = load ptr, ptr %8, align 8, !tbaa !151
  call void @EVP_MD_free(ptr noundef %35)
  store i32 0, ptr %4, align 4
  store i32 1, ptr %9, align 4
  br label %80

36:                                               ; preds = %25
  %37 = load ptr, ptr %5, align 8, !tbaa !13
  %38 = getelementptr inbounds nuw %struct.PROV_XORSIG_CTX, ptr %37, i32 0, i32 8
  %39 = load ptr, ptr %38, align 8, !tbaa !147
  call void @EVP_MD_CTX_free(ptr noundef %39)
  %40 = load ptr, ptr %5, align 8, !tbaa !13
  %41 = getelementptr inbounds nuw %struct.PROV_XORSIG_CTX, ptr %40, i32 0, i32 8
  store ptr null, ptr %41, align 8, !tbaa !147
  %42 = load ptr, ptr %5, align 8, !tbaa !13
  %43 = getelementptr inbounds nuw %struct.PROV_XORSIG_CTX, ptr %42, i32 0, i32 7
  %44 = load ptr, ptr %43, align 8, !tbaa !148
  call void @EVP_MD_free(ptr noundef %44)
  %45 = load ptr, ptr %5, align 8, !tbaa !13
  %46 = getelementptr inbounds nuw %struct.PROV_XORSIG_CTX, ptr %45, i32 0, i32 7
  store ptr null, ptr %46, align 8, !tbaa !148
  %47 = load ptr, ptr %5, align 8, !tbaa !13
  %48 = getelementptr inbounds nuw %struct.PROV_XORSIG_CTX, ptr %47, i32 0, i32 5
  %49 = load ptr, ptr %48, align 8, !tbaa !149
  call void @CRYPTO_free(ptr noundef %49, ptr noundef @.str.2, i32 noundef 2691)
  %50 = load ptr, ptr %5, align 8, !tbaa !13
  %51 = getelementptr inbounds nuw %struct.PROV_XORSIG_CTX, ptr %50, i32 0, i32 5
  store ptr null, ptr %51, align 8, !tbaa !149
  %52 = load ptr, ptr %5, align 8, !tbaa !13
  %53 = getelementptr inbounds nuw %struct.PROV_XORSIG_CTX, ptr %52, i32 0, i32 5
  %54 = load ptr, ptr %5, align 8, !tbaa !13
  %55 = getelementptr inbounds nuw %struct.PROV_XORSIG_CTX, ptr %54, i32 0, i32 2
  %56 = load ptr, ptr %55, align 8, !tbaa !145
  %57 = getelementptr inbounds nuw %struct.xorkey_st, ptr %56, i32 0, i32 4
  %58 = load ptr, ptr %57, align 8, !tbaa !59
  %59 = call i32 @xor_get_aid(ptr noundef %53, ptr noundef %58)
  %60 = sext i32 %59 to i64
  %61 = load ptr, ptr %5, align 8, !tbaa !13
  %62 = getelementptr inbounds nuw %struct.PROV_XORSIG_CTX, ptr %61, i32 0, i32 6
  store i64 %60, ptr %62, align 8, !tbaa !153
  %63 = load ptr, ptr %5, align 8, !tbaa !13
  %64 = getelementptr inbounds nuw %struct.PROV_XORSIG_CTX, ptr %63, i32 0, i32 6
  %65 = load i64, ptr %64, align 8, !tbaa !153
  %66 = icmp ule i64 %65, 0
  br i1 %66, label %67, label %69

67:                                               ; preds = %36
  %68 = load ptr, ptr %8, align 8, !tbaa !151
  call void @EVP_MD_free(ptr noundef %68)
  store i32 0, ptr %4, align 4
  store i32 1, ptr %9, align 4
  br label %80

69:                                               ; preds = %36
  %70 = load ptr, ptr %5, align 8, !tbaa !13
  %71 = getelementptr inbounds nuw %struct.PROV_XORSIG_CTX, ptr %70, i32 0, i32 8
  store ptr null, ptr %71, align 8, !tbaa !147
  %72 = load ptr, ptr %8, align 8, !tbaa !151
  %73 = load ptr, ptr %5, align 8, !tbaa !13
  %74 = getelementptr inbounds nuw %struct.PROV_XORSIG_CTX, ptr %73, i32 0, i32 7
  store ptr %72, ptr %74, align 8, !tbaa !148
  %75 = load ptr, ptr %5, align 8, !tbaa !13
  %76 = getelementptr inbounds nuw %struct.PROV_XORSIG_CTX, ptr %75, i32 0, i32 4
  %77 = getelementptr inbounds [50 x i8], ptr %76, i64 0, i64 0
  %78 = load ptr, ptr %6, align 8, !tbaa !30
  %79 = call i64 @OPENSSL_strlcpy(ptr noundef %77, ptr noundef %78, i64 noundef 50)
  store i32 1, ptr %4, align 4
  store i32 1, ptr %9, align 4
  br label %80

80:                                               ; preds = %69, %67, %34
  call void @llvm.lifetime.end.p0(i64 8, ptr %8) #8
  %81 = load i32, ptr %4, align 4
  ret i32 %81
}