; Function Attrs: nounwind uwtable
define internal fastcc range(i32 0, 2) i32 @xor_sig_setup_md(ptr noundef %0, ptr noundef %1, ptr noundef %2) unnamed_addr #0 {
  %4 = icmp eq ptr %2, null
  br i1 %4, label %5, label %8

5:                                                ; preds = %3
  %6 = getelementptr inbounds nuw i8, ptr %0, i64 8
  %7 = load ptr, ptr %6, align 8, !tbaa !110
  br label %8

8:                                                ; preds = %5, %3
  %.026 = phi ptr [ %7, %5 ], [ %2, %3 ]
  %9 = load ptr, ptr %0, align 8, !tbaa !106
  %10 = tail call ptr @EVP_MD_fetch(ptr noundef %9, ptr noundef %1, ptr noundef %.026) #16
  %11 = icmp eq ptr %10, null
  br i1 %11, label %.critedge, label %12

12:                                               ; preds = %8
  %13 = tail call i32 @EVP_MD_get_type(ptr noundef nonnull %10) #16
  %14 = icmp eq i32 %13, 0
  br i1 %14, label %15, label %16

.critedge:                                        ; preds = %8
  tail call void @ERR_new() #16
  tail call void @ERR_set_debug(ptr noundef nonnull @.str.2, i32 noundef 2680, ptr noundef nonnull @__func__.xor_sig_setup_md) #16
  tail call void (i32, i32, ptr, ...) @ERR_set_error(i32 noundef 128, i32 noundef 1, ptr noundef nonnull @.str.70, ptr noundef %1) #16
  br label %15

15:                                               ; preds = %12, %.critedge
  tail call void @EVP_MD_free(ptr noundef %10) #16
  br label %38

16:                                               ; preds = %12
  %17 = getelementptr inbounds nuw i8, ptr %0, i64 104
  %18 = load ptr, ptr %17, align 8, !tbaa !114
  tail call void @EVP_MD_CTX_free(ptr noundef %18) #16
  store ptr null, ptr %17, align 8, !tbaa !114
  %19 = getelementptr inbounds nuw i8, ptr %0, i64 96
  %20 = load ptr, ptr %19, align 8, !tbaa !115
  tail call void @EVP_MD_free(ptr noundef %20) #16
  store ptr null, ptr %19, align 8, !tbaa !115
  %21 = getelementptr inbounds nuw i8, ptr %0, i64 80
  %22 = load ptr, ptr %21, align 8, !tbaa !116
  tail call void @CRYPTO_free(ptr noundef %22, ptr noundef nonnull @.str.2, i32 noundef 2691) #16
  store ptr null, ptr %21, align 8, !tbaa !116
  %23 = getelementptr inbounds nuw i8, ptr %0, i64 16
  %24 = load ptr, ptr %23, align 8, !tbaa !111
  %25 = getelementptr inbounds nuw i8, ptr %24, i64 72
  %26 = load ptr, ptr %25, align 8, !tbaa !46
  %27 = tail call ptr @X509_ALGOR_new() #16
  %28 = tail call ptr @OBJ_txt2obj(ptr noundef %26, i32 noundef 0) #16
  %29 = tail call i32 @X509_ALGOR_set0(ptr noundef %27, ptr noundef %28, i32 noundef -1, ptr noundef null) #16
  %30 = tail call i32 @i2d_X509_ALGOR(ptr noundef %27, ptr noundef nonnull %21) #16
  tail call void @X509_ALGOR_free(ptr noundef %27) #16
  %31 = sext i32 %30 to i64
  %32 = getelementptr inbounds nuw i8, ptr %0, i64 88
  store i64 %31, ptr %32, align 8, !tbaa !121
  %33 = icmp eq i32 %30, 0
  br i1 %33, label %34, label %35

34:                                               ; preds = %16
  tail call void @EVP_MD_free(ptr noundef nonnull %10) #16
  br label %38

35:                                               ; preds = %16
  store ptr null, ptr %17, align 8, !tbaa !114
  store ptr %10, ptr %19, align 8, !tbaa !115
  %36 = getelementptr inbounds nuw i8, ptr %0, i64 25
  %37 = tail call i64 @OPENSSL_strlcpy(ptr noundef nonnull %36, ptr noundef %1, i64 noundef 50) #16
  br label %38

38:                                               ; preds = %35, %34, %15
  %.0 = phi i32 [ 0, %15 ], [ 0, %34 ], [ 1, %35 ]
  ret i32 %.0
}